; Function Attrs: nounwind uwtable
define noundef ptr @Kit_DsdShrink(ptr noundef %0, ptr noundef %1) local_unnamed_addr #0 {
Kit_DsdNtkRoot.exit.thread:
  %2 = load i16, ptr %0, align 8, !tbaa !34
  %3 = zext i16 %2 to i32
  %calloc.i = tail call dereferenceable_or_null(32) ptr @calloc(i64 1, i64 32)
  %4 = add nuw nsw i32 %3, 1
  %5 = shl nuw nsw i32 %4, 3
  %6 = zext nneg i32 %5 to i64
  %7 = tail call noalias ptr @malloc(i64 noundef %6) #26
  %8 = getelementptr inbounds nuw i8, ptr %calloc.i, i64 24
  store ptr %7, ptr %8, align 8, !tbaa !40
  store i16 %2, ptr %calloc.i, align 8, !tbaa !34
  %9 = trunc i32 %4 to i16
  %10 = getelementptr inbounds nuw i8, ptr %calloc.i, i64 2
  store i16 %9, ptr %10, align 2, !tbaa !39
  %11 = icmp ult i16 %2, 6
  %12 = add nsw i32 %3, -5
  %13 = shl i32 6, %12
  %14 = sext i32 %13 to i64
  %15 = shl nsw i64 %14, 2
  %16 = select i1 %11, i64 24, i64 %15
  %17 = tail call noalias ptr @malloc(i64 noundef %16) #26
  %18 = getelementptr inbounds nuw i8, ptr %calloc.i, i64 8
  store ptr %17, ptr %18, align 8, !tbaa !43
  %19 = getelementptr inbounds nuw i8, ptr %0, i64 6
  %20 = load i16, ptr %19, align 2, !tbaa !51
  %21 = lshr i16 %20, 1
  %22 = icmp uge i16 %21, %2
  tail call void @llvm.assume(i1 %22)
  %23 = getelementptr inbounds nuw i8, ptr %0, i64 24
  %24 = load ptr, ptr %23, align 8, !tbaa !40
  %narrow.i = sub nuw nsw i16 %21, %2
  %25 = zext nneg i16 %narrow.i to i64
  %26 = getelementptr inbounds nuw ptr, ptr %24, i64 %25
  %27 = load ptr, ptr %26, align 8, !tbaa !41
  %28 = load i32, ptr %27, align 4
  %29 = and i32 %28, 448
  switch i32 %29, label %68 [
    i32 64, label %30
    i32 128, label %46
  ]

30:                                               ; preds = %Kit_DsdNtkRoot.exit.thread
  %calloc.i22 = tail call dereferenceable_or_null(4) ptr @calloc(i64 1, i64 4)
  %31 = getelementptr inbounds nuw i8, ptr %calloc.i, i64 4
  %32 = and i32 %3, 63
  %33 = or disjoint i32 %32, 64
  store i32 %33, ptr %calloc.i22, align 4
  %34 = icmp eq i16 %9, 0
  br i1 %34, label %35, label %Kit_DsdObjAlloc.exit

35:                                               ; preds = %30
  store i16 0, ptr %10, align 2, !tbaa !39
  %.not.i = icmp eq ptr %7, null
  br i1 %.not.i, label %38, label %36

36:                                               ; preds = %35
  %37 = tail call ptr @realloc(ptr noundef nonnull %7, i64 noundef 0) #28
  br label %40

38:                                               ; preds = %35
  %39 = tail call noalias ptr @malloc(i64 noundef 0) #26
  br label %40

40:                                               ; preds = %38, %36
  %41 = phi ptr [ %37, %36 ], [ %39, %38 ]
  store ptr %41, ptr %8, align 8, !tbaa !40
  br label %Kit_DsdObjAlloc.exit

Kit_DsdObjAlloc.exit:                             ; preds = %30, %40
  %42 = phi ptr [ %41, %40 ], [ %7, %30 ]
  store i16 1, ptr %31, align 4, !tbaa !38
  store ptr %calloc.i22, ptr %42, align 8, !tbaa !41
  %43 = and i16 %20, 1
  %.tr35 = trunc nuw nsw i32 %32 to i16
  %44 = shl nuw nsw i16 %.tr35, 1
  %45 = or disjoint i16 %44, %43
  br label %72

46:                                               ; preds = %Kit_DsdNtkRoot.exit.thread
  %calloc.i25 = tail call dereferenceable_or_null(8) ptr @calloc(i64 1, i64 8)
  %47 = getelementptr inbounds nuw i8, ptr %calloc.i, i64 4
  %48 = and i32 %3, 63
  %49 = or disjoint i32 %48, 67110016
  store i32 %49, ptr %calloc.i25, align 4
  %50 = icmp eq i16 %9, 0
  br i1 %50, label %51, label %Kit_DsdObjAlloc.exit32

51:                                               ; preds = %46
  store i16 0, ptr %10, align 2, !tbaa !39
  %.not.i29 = icmp eq ptr %7, null
  br i1 %.not.i29, label %54, label %52

52:                                               ; preds = %51
  %53 = tail call ptr @realloc(ptr noundef nonnull %7, i64 noundef 0) #28
  br label %56

54:                                               ; preds = %51
  %55 = tail call noalias ptr @malloc(i64 noundef 0) #26
  br label %56

56:                                               ; preds = %54, %52
  %57 = phi ptr [ %53, %52 ], [ %55, %54 ]
  store ptr %57, ptr %8, align 8, !tbaa !40
  br label %Kit_DsdObjAlloc.exit32

Kit_DsdObjAlloc.exit32:                           ; preds = %46, %56
  %58 = phi ptr [ %57, %56 ], [ %7, %46 ]
  store i16 1, ptr %47, align 4, !tbaa !38
  store ptr %calloc.i25, ptr %58, align 8, !tbaa !41
  %59 = load ptr, ptr %26, align 8, !tbaa !41
  %60 = getelementptr inbounds nuw i8, ptr %59, i64 4
  %61 = load i16, ptr %60, align 4, !tbaa !49
  %62 = getelementptr inbounds nuw i8, ptr %calloc.i25, i64 4
  store i16 %61, ptr %62, align 4, !tbaa !49
  %63 = load i32, ptr %calloc.i25, align 4
  %64 = and i16 %20, 1
  %.tr = trunc i32 %63 to i16
  %65 = shl i16 %.tr, 1
  %66 = and i16 %65, 126
  %67 = or disjoint i16 %66, %64
  br label %72

68:                                               ; preds = %Kit_DsdNtkRoot.exit.thread
  %69 = zext i16 %20 to i32
  %70 = tail call i32 @Kit_DsdShrink_rec(ptr noundef nonnull %calloc.i, ptr noundef nonnull %0, i32 noundef %69, ptr noundef %1)
  %71 = trunc i32 %70 to i16
  br label %72

72:                                               ; preds = %68, %Kit_DsdObjAlloc.exit32, %Kit_DsdObjAlloc.exit
  %.sink = phi i16 [ %71, %68 ], [ %67, %Kit_DsdObjAlloc.exit32 ], [ %45, %Kit_DsdObjAlloc.exit ]
  %73 = getelementptr inbounds nuw i8, ptr %calloc.i, i64 6
  store i16 %.sink, ptr %73, align 2, !tbaa !51
  ret ptr %calloc.i
}